; ModuleID = '35/995.c'
source_filename = "35/995.c"
target datalayout = "e-m:e-p270:32:32-p271:32:32-p272:64:64-i64:64-f80:128-n8:16:32:64-S128"
target triple = "x86_64-pc-linux-gnu"

@.str = private unnamed_addr constant [6 x i8] c"%d,%d\00", align 1
@.str.1 = private unnamed_addr constant [3 x i8] c"%d\00", align 1
@.str.2 = private unnamed_addr constant [6 x i8] c"%d+%d\00", align 1
@.str.3 = private unnamed_addr constant [3 x i8] c"No\00", align 1

; Function Attrs: noinline nounwind uwtable
define dso_local i32 @main() #0 {
  %1 = alloca i32, align 4
  %2 = alloca i32, align 4
  %3 = alloca i32, align 4
  %4 = alloca i32, align 4
  %5 = alloca i32, align 4
  %6 = alloca i32, align 4
  %7 = alloca i32, align 4
  %8 = alloca i32, align 4
  %9 = alloca [8 x [8 x i32]], align 16
  %10 = alloca i32, align 4
  %11 = alloca i32, align 4
  store i32 0, i32* %1, align 4
  store i32 0, i32* %8, align 4
  %12 = call i32 (i8*, ...) @__isoc99_scanf(i8* getelementptr inbounds ([6 x i8], [6 x i8]* @.str, i64 0, i64 0), i32* %5, i32* %6)
  store i32 0, i32* %2, align 4
  br label %13

13:                                               ; preds = %34, %0
  %14 = load i32, i32* %2, align 4
  %15 = load i32, i32* %5, align 4
  %16 = icmp slt i32 %14, %15
  br i1 %16, label %17, label %37

17:                                               ; preds = %13
  store i32 0, i32* %3, align 4
  br label %18

18:                                               ; preds = %30, %17
  %19 = load i32, i32* %3, align 4
  %20 = load i32, i32* %6, align 4
  %21 = icmp slt i32 %19, %20
  br i1 %21, label %22, label %33

22:                                               ; preds = %18
  %23 = load i32, i32* %2, align 4
  %24 = sext i32 %23 to i64
  %25 = getelementptr inbounds [8 x [8 x i32]], [8 x [8 x i32]]* %9, i64 0, i64 %24
  %26 = load i32, i32* %3, align 4
  %27 = sext i32 %26 to i64
  %28 = getelementptr inbounds [8 x i32], [8 x i32]* %25, i64 0, i64 %27
  %29 = call i32 (i8*, ...) @__isoc99_scanf(i8* getelementptr inbounds ([3 x i8], [3 x i8]* @.str.1, i64 0, i64 0), i32* %28)
  br label %30

30:                                               ; preds = %22
  %31 = load i32, i32* %3, align 4
  %32 = add nsw i32 %31, 1
  store i32 %32, i32* %3, align 4
  br label %18

33:                                               ; preds = %18
  br label %34

34:                                               ; preds = %33
  %35 = load i32, i32* %2, align 4
  %36 = add nsw i32 %35, 1
  store i32 %36, i32* %2, align 4
  br label %13

37:                                               ; preds = %13
  store i32 0, i32* %2, align 4
  br label %38

38:                                               ; preds = %108, %37
  %39 = load i32, i32* %2, align 4
  %40 = load i32, i32* %5, align 4
  %41 = icmp slt i32 %39, %40
  br i1 %41, label %42, label %111

42:                                               ; preds = %38
  %43 = load i32, i32* %2, align 4
  %44 = sext i32 %43 to i64
  %45 = getelementptr inbounds [8 x [8 x i32]], [8 x [8 x i32]]* %9, i64 0, i64 %44
  %46 = getelementptr inbounds [8 x i32], [8 x i32]* %45, i64 0, i64 0
  %47 = load i32, i32* %46, align 16
  store i32 %47, i32* %10, align 4
  store i32 0, i32* %11, align 4
  store i32 0, i32* %3, align 4
  br label %48

48:                                               ; preds = %72, %42
  %49 = load i32, i32* %3, align 4
  %50 = load i32, i32* %6, align 4
  %51 = icmp slt i32 %49, %50
  br i1 %51, label %52, label %75

52:                                               ; preds = %48
  %53 = load i32, i32* %2, align 4
  %54 = sext i32 %53 to i64
  %55 = getelementptr inbounds [8 x [8 x i32]], [8 x [8 x i32]]* %9, i64 0, i64 %54
  %56 = load i32, i32* %3, align 4
  %57 = sext i32 %56 to i64
  %58 = getelementptr inbounds [8 x i32], [8 x i32]* %55, i64 0, i64 %57
  %59 = load i32, i32* %58, align 4
  %60 = load i32, i32* %10, align 4
  %61 = icmp sgt i32 %59, %60
  br i1 %61, label %62, label %71

62:                                               ; preds = %52
  %63 = load i32, i32* %2, align 4
  %64 = sext i32 %63 to i64
  %65 = getelementptr inbounds [8 x [8 x i32]], [8 x [8 x i32]]* %9, i64 0, i64 %64
  %66 = load i32, i32* %3, align 4
  %67 = sext i32 %66 to i64
  %68 = getelementptr inbounds [8 x i32], [8 x i32]* %65, i64 0, i64 %67
  %69 = load i32, i32* %68, align 4
  store i32 %69, i32* %10, align 4
  %70 = load i32, i32* %3, align 4
  store i32 %70, i32* %11, align 4
  br label %71

71:                                               ; preds = %62, %52
  br label %72

72:                                               ; preds = %71
  %73 = load i32, i32* %3, align 4
  %74 = add nsw i32 %73, 1
  store i32 %74, i32* %3, align 4
  br label %48

75:                                               ; preds = %48
  store i32 0, i32* %4, align 4
  store i32 1, i32* %7, align 4
  br label %76

76:                                               ; preds = %97, %75
  %77 = load i32, i32* %4, align 4
  %78 = load i32, i32* %5, align 4
  %79 = icmp slt i32 %77, %78
  br i1 %79, label %80, label %83

80:                                               ; preds = %76
  %81 = load i32, i32* %7, align 4
  %82 = icmp ne i32 %81, 0
  br label %83

83:                                               ; preds = %80, %76
  %84 = phi i1 [ false, %76 ], [ %82, %80 ]
  br i1 %84, label %85, label %100

85:                                               ; preds = %83
  %86 = load i32, i32* %10, align 4
  %87 = load i32, i32* %4, align 4
  %88 = sext i32 %87 to i64
  %89 = getelementptr inbounds [8 x [8 x i32]], [8 x [8 x i32]]* %9, i64 0, i64 %88
  %90 = load i32, i32* %11, align 4
  %91 = sext i32 %90 to i64
  %92 = getelementptr inbounds [8 x i32], [8 x i32]* %89, i64 0, i64 %91
  %93 = load i32, i32* %92, align 4
  %94 = icmp sgt i32 %86, %93
  br i1 %94, label %95, label %96

95:                                               ; preds = %85
  store i32 0, i32* %7, align 4
  br label %96

96:                                               ; preds = %95, %85
  br label %97

97:                                               ; preds = %96
  %98 = load i32, i32* %4, align 4
  %99 = add nsw i32 %98, 1
  store i32 %99, i32* %4, align 4
  br label %76

100:                                              ; preds = %83
  %101 = load i32, i32* %7, align 4
  %102 = icmp ne i32 %101, 0
  br i1 %102, label %103, label %107

103:                                              ; preds = %100
  %104 = load i32, i32* %2, align 4
  %105 = load i32, i32* %11, align 4
  %106 = call i32 (i8*, ...) @printf(i8* getelementptr inbounds ([6 x i8], [6 x i8]* @.str.2, i64 0, i64 0), i32 %104, i32 %105)
  store i32 1, i32* %8, align 4
  br label %107

107:                                              ; preds = %103, %100
  br label %108

108:                                              ; preds = %107
  %109 = load i32, i32* %2, align 4
  %110 = add nsw i32 %109, 1
  store i32 %110, i32* %2, align 4
  br label %38

111:                                              ; preds = %38
  %112 = load i32, i32* %8, align 4
  %113 = icmp ne i32 %112, 1
  br i1 %113, label %114, label %116

114:                                              ; preds = %111
  %115 = call i32 (i8*, ...) @printf(i8* getelementptr inbounds ([3 x i8], [3 x i8]* @.str.3, i64 0, i64 0))
  br label %116

116:                                              ; preds = %114, %111
  ret i32 0
}

declare dso_local i32 @__isoc99_scanf(i8*, ...) #1

declare dso_local i32 @printf(i8*, ...) #1


!llvm.module.flags = !{!0}
!llvm.ident = !{!1}

!0 = !{i32 1, !"wchar_size", i32 4}
!1 = !{!"clang version 10.0.0-4ubuntu1 "}
